; Function Attrs: nounwind uwtable
define dso_local i64 @text_substr_no_len(ptr noundef readonly captures(none) %0) local_unnamed_addr #0 {
  %2 = getelementptr inbounds nuw i8, ptr %0, i64 32
  %3 = load i64, ptr %2, align 8
  %4 = getelementptr inbounds nuw i8, ptr %0, i64 48
  %5 = load i64, ptr %4, align 8
  %6 = trunc i64 %5 to i32
  %7 = tail call fastcc ptr @text_substring(i64 noundef %3, i32 noundef %6, i32 noundef -1, i1 noundef zeroext true)
  %8 = ptrtoint ptr %7 to i64
  ret i64 %8
}